; Function Attrs: mustprogress uwtable
define internal noundef zeroext i1 @_ZNSt17_Function_handlerIFN12_GLOBAL__N_110GraphStyleEN5Yosys5RTLIL6SigBitEEZNS0_13FlowmapWorker14dump_dot_graphENSt7__cxx1112basic_stringIcSt11char_traitsIcESaIcEEENS6_9GraphModeENS2_7hashlib4poolIS4_NSE_8hash_opsIS4_EEEENSE_4dictIS4_SI_SH_EESK_St4pairISI_SI_EEUlS4_E_E10_M_managerERSt9_Any_dataRKSP_St18_Manager_operation(ptr nocapture noundef nonnull align 8 dereferenceable(16) %0, ptr nocapture noundef nonnull readonly align 8 dereferenceable(16) %1, i32 noundef %2) #4 align 2 {
  switch i32 %2, label %_ZNSt14_Function_base13_Base_managerIZN12_GLOBAL__N_113FlowmapWorker14dump_dot_graphENSt7__cxx1112basic_stringIcSt11char_traitsIcESaIcEEENS2_9GraphModeEN5Yosys7hashlib4poolINSA_5RTLIL6SigBitENSB_8hash_opsISE_EEEENSB_4dictISE_SH_SG_EESJ_St4pairISH_SH_EEUlSE_E_E10_M_managerERSt9_Any_dataRKSO_St18_Manager_operation.exit [
    i32 0, label %4
    i32 1, label %5
    i32 3, label %8
    i32 2, label %6
  ]

4:                                                ; preds = %3
  store ptr @_ZTIZN12_GLOBAL__N_113FlowmapWorker14dump_dot_graphENSt7__cxx1112basic_stringIcSt11char_traitsIcESaIcEEENS0_9GraphModeEN5Yosys7hashlib4poolINS8_5RTLIL6SigBitENS9_8hash_opsISC_EEEENS9_4dictISC_SF_SE_EESH_St4pairISF_SF_EEUlSC_E_, ptr %0, align 8
  br label %_ZNSt14_Function_base13_Base_managerIZN12_GLOBAL__N_113FlowmapWorker14dump_dot_graphENSt7__cxx1112basic_stringIcSt11char_traitsIcESaIcEEENS2_9GraphModeEN5Yosys7hashlib4poolINSA_5RTLIL6SigBitENSB_8hash_opsISE_EEEENSB_4dictISE_SH_SG_EESJ_St4pairISH_SH_EEUlSE_E_E10_M_managerERSt9_Any_dataRKSO_St18_Manager_operation.exit

5:                                                ; preds = %3
  %.val = load ptr, ptr %1, align 8
  store ptr %.val, ptr %0, align 8
  br label %_ZNSt14_Function_base13_Base_managerIZN12_GLOBAL__N_113FlowmapWorker14dump_dot_graphENSt7__cxx1112basic_stringIcSt11char_traitsIcESaIcEEENS2_9GraphModeEN5Yosys7hashlib4poolINSA_5RTLIL6SigBitENSB_8hash_opsISE_EEEENSB_4dictISE_SH_SG_EESJ_St4pairISH_SH_EEUlSE_E_E10_M_managerERSt9_Any_dataRKSO_St18_Manager_operation.exit

6:                                                ; preds = %3
  %.val6 = load ptr, ptr %1, align 8
  %7 = tail call noalias noundef nonnull dereferenceable(32) ptr @_Znwm(i64 noundef 32) #28
  tail call void @llvm.memcpy.p0.p0.i64(ptr noundef nonnull align 16 dereferenceable(32) %7, ptr noundef nonnull align 8 dereferenceable(32) %.val6, i64 32, i1 false)
  store ptr %7, ptr %0, align 8
  br label %_ZNSt14_Function_base13_Base_managerIZN12_GLOBAL__N_113FlowmapWorker14dump_dot_graphENSt7__cxx1112basic_stringIcSt11char_traitsIcESaIcEEENS2_9GraphModeEN5Yosys7hashlib4poolINSA_5RTLIL6SigBitENSB_8hash_opsISE_EEEENSB_4dictISE_SH_SG_EESJ_St4pairISH_SH_EEUlSE_E_E10_M_managerERSt9_Any_dataRKSO_St18_Manager_operation.exit

8:                                                ; preds = %3
  %.val7.i = load ptr, ptr %0, align 8
  %9 = icmp eq ptr %.val7.i, null
  br i1 %9, label %_ZNSt14_Function_base13_Base_managerIZN12_GLOBAL__N_113FlowmapWorker14dump_dot_graphENSt7__cxx1112basic_stringIcSt11char_traitsIcESaIcEEENS2_9GraphModeEN5Yosys7hashlib4poolINSA_5RTLIL6SigBitENSB_8hash_opsISE_EEEENSB_4dictISE_SH_SG_EESJ_St4pairISH_SH_EEUlSE_E_E10_M_managerERSt9_Any_dataRKSO_St18_Manager_operation.exit, label %10

10:                                               ; preds = %8
  tail call void @_ZdlPv(ptr noundef nonnull %.val7.i) #24
  br label %_ZNSt14_Function_base13_Base_managerIZN12_GLOBAL__N_113FlowmapWorker14dump_dot_graphENSt7__cxx1112basic_stringIcSt11char_traitsIcESaIcEEENS2_9GraphModeEN5Yosys7hashlib4poolINSA_5RTLIL6SigBitENSB_8hash_opsISE_EEEENSB_4dictISE_SH_SG_EESJ_St4pairISH_SH_EEUlSE_E_E10_M_managerERSt9_Any_dataRKSO_St18_Manager_operation.exit

_ZNSt14_Function_base13_Base_managerIZN12_GLOBAL__N_113FlowmapWorker14dump_dot_graphENSt7__cxx1112basic_stringIcSt11char_traitsIcESaIcEEENS2_9GraphModeEN5Yosys7hashlib4poolINSA_5RTLIL6SigBitENSB_8hash_opsISE_EEEENSB_4dictISE_SH_SG_EESJ_St4pairISH_SH_EEUlSE_E_E10_M_managerERSt9_Any_dataRKSO_St18_Manager_operation.exit: ; preds = %3, %10, %8, %6, %5, %4
  ret i1 false
}